target datalayout = "e-m:e-p270:32:32-p271:32:32-p272:64:64-i64:64-i128:128-f80:128-n8:16:32:64-S128"
target triple = "x86_64-pc-linux-gnu"

%struct._object = type { %union.anon.41, ptr }
%union.anon.41 = type { i64 }
%struct._ts = type { ptr, ptr, ptr, i64, %struct.anon.805, i32, i32, i32, i32, i32, i32, i32, i32, ptr, ptr, ptr, ptr, ptr, ptr, ptr, ptr, i32, ptr, i64, i64, ptr, i64, i32, ptr, ptr, ptr, i64, i64, ptr, ptr, ptr, %struct._err_stackitem, ptr, i64, ptr, ptr }
%struct.anon.805 = type { i32 }
%struct._err_stackitem = type { ptr, ptr }
%struct.anon.42 = type { i32, i32 }

@.str.3 = private unnamed_addr constant [9 x i8] c"__main__\00", align 1
@_Py_tss_tstate = external thread_local global ptr, align 8
@.str.29 = private unnamed_addr constant [3 x i8] c"sO\00", align 1
@.str.30 = private unnamed_addr constant [11 x i8] c"__loader__\00", align 1

; Function Attrs: alwaysinline nounwind uwtable
define internal i32 @_Py_IsImmortal(ptr noundef %0) #3 {
  %2 = alloca ptr, align 8
  store ptr %0, ptr %2, align 8, !tbaa !9
  %3 = load ptr, ptr %2, align 8, !tbaa !9
  %4 = getelementptr inbounds nuw %struct._object, ptr %3, i32 0, i32 0
  %5 = getelementptr inbounds nuw %struct.anon.42, ptr %4, i32 0, i32 0
  %6 = load i32, ptr %5, align 8, !tbaa !20
  %7 = icmp slt i32 %6, 0
  %8 = zext i1 %7 to i32
  ret i32 %8
}

; Function Attrs: inlinehint nounwind uwtable
define internal ptr @_PyThreadState_GET() #4 {
  %1 = call align 8 ptr @llvm.threadlocal.address.p0(ptr align 8 @_Py_tss_tstate)
  %2 = load ptr, ptr %1, align 8, !tbaa !14
  ret ptr %2
}

; Function Attrs: alwaysinline nounwind uwtable
define internal void @Py_DECREF(ptr noundef %0) #3 {
  %2 = alloca ptr, align 8
  store ptr %0, ptr %2, align 8, !tbaa !9
  %3 = load ptr, ptr %2, align 8, !tbaa !9
  %4 = call i32 @_Py_IsImmortal(ptr noundef %3)
  %5 = icmp ne i32 %4, 0
  br i1 %5, label %6, label %7

6:                                                ; preds = %1
  br label %16

7:                                                ; preds = %1
  %8 = load ptr, ptr %2, align 8, !tbaa !9
  %9 = getelementptr inbounds nuw %struct._object, ptr %8, i32 0, i32 0
  %10 = getelementptr inbounds nuw %struct.anon.42, ptr %9, i32 0, i32 0
  %11 = load i32, ptr %10, align 8, !tbaa !20
  %12 = add i32 %11, -1
  store i32 %12, ptr %10, align 8, !tbaa !20
  %13 = icmp eq i32 %12, 0
  br i1 %13, label %14, label %16

14:                                               ; preds = %7
  %15 = load ptr, ptr %2, align 8, !tbaa !9
  call void @_Py_Dealloc(ptr noundef %15)
  br label %16

16:                                               ; preds = %6, %14, %7
  ret void
}

; Function Attrs: inlinehint nounwind uwtable
define internal ptr @_PyInterpreterState_GET() #4 {
  %1 = alloca ptr, align 8
  call void @llvm.lifetime.start.p0(i64 8, ptr %1) #10
  %2 = call ptr @_PyThreadState_GET()
  store ptr %2, ptr %1, align 8, !tbaa !14
  %3 = load ptr, ptr %1, align 8, !tbaa !14
  %4 = getelementptr inbounds nuw %struct._ts, ptr %3, i32 0, i32 2
  %5 = load ptr, ptr %4, align 8, !tbaa !220
  call void @llvm.lifetime.end.p0(i64 8, ptr %1) #10
  ret ptr %5
}

; Function Attrs: nounwind uwtable
define internal i32 @set_main_loader(ptr noundef %0, ptr noundef %1, ptr noundef %2) #0 {
  %4 = alloca i32, align 4
  %5 = alloca ptr, align 8
  %6 = alloca ptr, align 8
  %7 = alloca ptr, align 8
  %8 = alloca ptr, align 8
  %9 = alloca ptr, align 8
  %10 = alloca i32, align 4
  %11 = alloca ptr, align 8
  store ptr %0, ptr %5, align 8, !tbaa !9
  store ptr %1, ptr %6, align 8, !tbaa !9
  store ptr %2, ptr %7, align 8, !tbaa !21
  call void @llvm.lifetime.start.p0(i64 8, ptr %8) #10
  %12 = call ptr @_PyInterpreterState_GET()
  store ptr %12, ptr %8, align 8, !tbaa !34
  call void @llvm.lifetime.start.p0(i64 8, ptr %9) #10
  %13 = load ptr, ptr %8, align 8, !tbaa !34
  %14 = load ptr, ptr %7, align 8, !tbaa !21
  %15 = call ptr @_PyImport_GetImportlibExternalLoader(ptr noundef %13, ptr noundef %14)
  store ptr %15, ptr %9, align 8, !tbaa !9
  %16 = load ptr, ptr %9, align 8, !tbaa !9
  %17 = icmp eq ptr %16, null
  br i1 %17, label %18, label %19

18:                                               ; preds = %3
  store i32 -1, ptr %4, align 4
  store i32 1, ptr %10, align 4
  br label %37

19:                                               ; preds = %3
  call void @llvm.lifetime.start.p0(i64 8, ptr %11) #10
  %20 = load ptr, ptr %9, align 8, !tbaa !9
  %21 = load ptr, ptr %6, align 8, !tbaa !9
  %22 = call ptr (ptr, ptr, ...) @PyObject_CallFunction(ptr noundef %20, ptr noundef @.str.29, ptr noundef @.str.3, ptr noundef %21)
  store ptr %22, ptr %11, align 8, !tbaa !9
  %23 = load ptr, ptr %9, align 8, !tbaa !9
  call void @Py_DECREF(ptr noundef %23)
  %24 = load ptr, ptr %11, align 8, !tbaa !9
  %25 = icmp eq ptr %24, null
  br i1 %25, label %26, label %27

26:                                               ; preds = %19
  store i32 -1, ptr %4, align 4
  store i32 1, ptr %10, align 4
  br label %36

27:                                               ; preds = %19
  %28 = load ptr, ptr %5, align 8, !tbaa !9
  %29 = load ptr, ptr %11, align 8, !tbaa !9
  %30 = call i32 @PyDict_SetItemString(ptr noundef %28, ptr noundef @.str.30, ptr noundef %29)
  %31 = icmp slt i32 %30, 0
  br i1 %31, label %32, label %34

32:                                               ; preds = %27
  %33 = load ptr, ptr %11, align 8, !tbaa !9
  call void @Py_DECREF(ptr noundef %33)
  store i32 -1, ptr %4, align 4
  store i32 1, ptr %10, align 4
  br label %36

34:                                               ; preds = %27
  %35 = load ptr, ptr %11, align 8, !tbaa !9
  call void @Py_DECREF(ptr noundef %35)
  store i32 0, ptr %4, align 4
  store i32 1, ptr %10, align 4
  br label %36

36:                                               ; preds = %34, %32, %26
  call void @llvm.lifetime.end.p0(i64 8, ptr %11) #10
  br label %37

37:                                               ; preds = %36, %18
  call void @llvm.lifetime.end.p0(i64 8, ptr %9) #10
  call void @llvm.lifetime.end.p0(i64 8, ptr %8) #10
  %38 = load i32, ptr %4, align 4
  ret i32 %38
}