; Function Attrs: nounwind uwtable
define internal fastcc range(i32 -1, 1) i32 @set_main_loader(ptr noundef %0, ptr noundef %1, ptr noundef %2) unnamed_addr #0 {
  %4 = tail call align 8 ptr @llvm.threadlocal.address.p0(ptr align 8 @_Py_tss_tstate)
  %5 = load ptr, ptr %4, align 8, !tbaa !4
  %6 = getelementptr inbounds nuw i8, ptr %5, i64 16
  %7 = load ptr, ptr %6, align 8, !tbaa !38
  %8 = tail call ptr @_PyImport_GetImportlibExternalLoader(ptr noundef %7, ptr noundef %2) #8
  %9 = icmp eq ptr %8, null
  br i1 %9, label %25, label %10

10:                                               ; preds = %3
  %11 = tail call ptr (ptr, ptr, ...) @PyObject_CallFunction(ptr noundef nonnull %8, ptr noundef nonnull @.str.29, ptr noundef nonnull @.str.3, ptr noundef %1) #8
  %12 = load i32, ptr %8, align 8, !tbaa !9
  %.not.i13 = icmp sgt i32 %12, -1
  br i1 %.not.i13, label %13, label %Py_DECREF.exit14

13:                                               ; preds = %10
  %14 = add nsw i32 %12, -1
  store i32 %14, ptr %8, align 8, !tbaa !9
  %15 = icmp eq i32 %14, 0
  br i1 %15, label %16, label %Py_DECREF.exit14

16:                                               ; preds = %13
  tail call void @_Py_Dealloc(ptr noundef nonnull %8) #8
  br label %Py_DECREF.exit14

Py_DECREF.exit14:                                 ; preds = %10, %13, %16
  %17 = icmp eq ptr %11, null
  br i1 %17, label %25, label %18

18:                                               ; preds = %Py_DECREF.exit14
  %19 = tail call i32 @PyDict_SetItemString(ptr noundef %0, ptr noundef nonnull @.str.30, ptr noundef nonnull %11) #8
  %20 = load i32, ptr %11, align 8, !tbaa !9
  %.not.i = icmp sgt i32 %20, -1
  br i1 %.not.i, label %21, label %Py_DECREF.exit

21:                                               ; preds = %18
  %22 = add nsw i32 %20, -1
  store i32 %22, ptr %11, align 8, !tbaa !9
  %23 = icmp eq i32 %22, 0
  br i1 %23, label %24, label %Py_DECREF.exit

24:                                               ; preds = %21
  tail call void @_Py_Dealloc(ptr noundef nonnull %11) #8
  br label %Py_DECREF.exit

Py_DECREF.exit:                                   ; preds = %18, %21, %24
  %.lobit = ashr i32 %19, 31
  br label %25

25:                                               ; preds = %Py_DECREF.exit14, %Py_DECREF.exit, %3
  %.0 = phi i32 [ -1, %3 ], [ -1, %Py_DECREF.exit14 ], [ %.lobit, %Py_DECREF.exit ]
  ret i32 %.0
}